target datalayout = "e-m:e-p270:32:32-p271:32:32-p272:64:64-i64:64-i128:128-f80:128-n8:16:32:64-S128"
target triple = "x86_64-pc-linux-gnu"

%struct._packet_info = type { ptr, ptr, i32, i32, %struct.nstime_t, %struct.nstime_t, %struct.nstime_t, i8, ptr, ptr, ptr, ptr, %struct._address, %struct._address, %struct._address, %struct._address, %struct._address, %struct._address, i32, ptr, i8, [3 x i8], %struct.anon, i32, i32, i32, i32, ptr, i8, ptr, ptr, i16, i16, i32, i32, i16, i32, i32, ptr, ptr, ptr, i8, i8, i16, i16, i16, i32, i16, i16, ptr, ptr, ptr, ptr, ptr, i32, i32 }
%struct.nstime_t = type { i64, i32 }
%struct._address = type { i32, i32, ptr, ptr }
%struct.anon = type { i8, [3 x i8] }

@hf_awdl_channelseq_channel_count = internal global i32 0, align 4
@hf_awdl_channelseq_enc = internal global i32 0, align 4
@hf_awdl_channelseq_duplicate = internal global i32 0, align 4
@hf_awdl_channelseq_step_count = internal global i32 0, align 4
@hf_awdl_channelseq_fill_chan = internal global i32 0, align 4
@hf_awdl_channelseq_channel_list = internal global i32 0, align 4
@hf_awdl_channelseq_channel = internal global i32 0, align 4
@hf_awdl_channelseq_channel_number = internal global i32 0, align 4
@hf_awdl_channelseq_channel_operating_class = internal global i32 0, align 4
@hf_awdl_channelseq_channel_flags = internal global i32 0, align 4
@ett_awdl_channelseq_flags = internal global i32 0, align 4
@ett_awdl_channelseq_channel_list = internal global i32 0, align 4
@ett_awdl_channelseq_channel = internal global i32 0, align 4
@.str.551 = private unnamed_addr constant [5 x i8] c": %s\00", align 1
@.str.573 = private unnamed_addr constant [5 x i8] c", %u\00", align 1
@awdl_tag_channel_sequence.flags_fields = internal constant [5 x ptr] [ptr @hf_awdl_channelseq_legacy_control_channel, ptr @hf_awdl_channelseq_legacy_bandwidth, ptr @hf_awdl_channelseq_legacy_band, ptr @hf_awdl_channelseq_legacy_unused, ptr null], align 16
@.str.583 = private unnamed_addr constant [3 x i8] c"%u\00", align 1

; Function Attrs: null_pointer_is_valid sspstrong uwtable
define internal i32 @awdl_tag_channel_sequence(ptr noundef %0, ptr noundef %1, ptr noundef %2, ptr noundef %3) #0 {
  %5 = alloca ptr, align 8
  %6 = alloca ptr, align 8
  %7 = alloca ptr, align 8
  %8 = alloca ptr, align 8
  %9 = alloca ptr, align 8
  %10 = alloca ptr, align 8
  %11 = alloca ptr, align 8
  %12 = alloca ptr, align 8
  %13 = alloca i32, align 4
  %14 = alloca i32, align 4
  %15 = alloca ptr, align 8
  %16 = alloca i32, align 4
  %17 = alloca i8, align 1
  %18 = alloca i32, align 4
  %19 = alloca i32, align 4
  %20 = alloca i32, align 4
  store ptr %0, ptr %5, align 8
  store ptr %1, ptr %6, align 8
  store ptr %2, ptr %7, align 8
  store ptr %3, ptr %8, align 8
  call void @llvm.lifetime.start.p0(i64 8, ptr %9) #6
  call void @llvm.lifetime.start.p0(i64 8, ptr %10) #6
  call void @llvm.lifetime.start.p0(i64 8, ptr %11) #6
  call void @llvm.lifetime.start.p0(i64 8, ptr %12) #6
  call void @llvm.lifetime.start.p0(i64 4, ptr %13) #6
  call void @llvm.lifetime.start.p0(i64 4, ptr %14) #6
  call void @llvm.lifetime.start.p0(i64 8, ptr %15) #6
  call void @llvm.lifetime.start.p0(i64 4, ptr %16) #6
  store i32 0, ptr %16, align 4
  %21 = load ptr, ptr %7, align 8
  %22 = load i32, ptr @hf_awdl_channelseq_channel_count, align 4
  %23 = load ptr, ptr %5, align 8
  %24 = load i32, ptr %16, align 4
  %25 = call ptr @proto_tree_add_item_ret_uint(ptr noundef %21, i32 noundef %22, ptr noundef %23, i32 noundef %24, i32 noundef 1, i32 noundef -2147483648, ptr noundef %13)
  %26 = load i32, ptr %13, align 4
  %27 = add i32 %26, 1
  store i32 %27, ptr %13, align 4
  %28 = load i32, ptr %16, align 4
  %29 = add i32 %28, 1
  store i32 %29, ptr %16, align 4
  call void @llvm.lifetime.start.p0(i64 1, ptr %17) #6
  %30 = load ptr, ptr %5, align 8
  %31 = load i32, ptr %16, align 4
  %32 = call zeroext i8 @tvb_get_uint8(ptr noundef %30, i32 noundef %31)
  store i8 %32, ptr %17, align 1
  %33 = load ptr, ptr %7, align 8
  %34 = load i32, ptr @hf_awdl_channelseq_enc, align 4
  %35 = load ptr, ptr %5, align 8
  %36 = load i32, ptr %16, align 4
  %37 = call ptr @proto_tree_add_item(ptr noundef %33, i32 noundef %34, ptr noundef %35, i32 noundef %36, i32 noundef 1, i32 noundef -2147483648)
  %38 = load i32, ptr %16, align 4
  %39 = add i32 %38, 1
  store i32 %39, ptr %16, align 4
  %40 = load ptr, ptr %7, align 8
  %41 = load i32, ptr @hf_awdl_channelseq_duplicate, align 4
  %42 = load ptr, ptr %5, align 8
  %43 = load i32, ptr %16, align 4
  %44 = call ptr @proto_tree_add_item(ptr noundef %40, i32 noundef %41, ptr noundef %42, i32 noundef %43, i32 noundef 1, i32 noundef -2147483648)
  %45 = load i32, ptr %16, align 4
  %46 = add i32 %45, 1
  store i32 %46, ptr %16, align 4
  %47 = load ptr, ptr %7, align 8
  %48 = load i32, ptr @hf_awdl_channelseq_step_count, align 4
  %49 = load ptr, ptr %5, align 8
  %50 = load i32, ptr %16, align 4
  %51 = call ptr @proto_tree_add_item(ptr noundef %47, i32 noundef %48, ptr noundef %49, i32 noundef %50, i32 noundef 1, i32 noundef -2147483648)
  %52 = load i32, ptr %16, align 4
  %53 = add i32 %52, 1
  store i32 %53, ptr %16, align 4
  %54 = load ptr, ptr %7, align 8
  %55 = load i32, ptr @hf_awdl_channelseq_fill_chan, align 4
  %56 = load ptr, ptr %5, align 8
  %57 = load i32, ptr %16, align 4
  %58 = call ptr @proto_tree_add_item(ptr noundef %54, i32 noundef %55, ptr noundef %56, i32 noundef %57, i32 noundef 2, i32 noundef -2147483648)
  %59 = load i32, ptr %16, align 4
  %60 = add i32 %59, 2
  store i32 %60, ptr %16, align 4
  %61 = load ptr, ptr %6, align 8
  %62 = getelementptr inbounds nuw %struct._packet_info, ptr %61, i32 0, i32 51
  %63 = load ptr, ptr %62, align 8
  %64 = load i32, ptr %13, align 4
  %65 = mul i32 5, %64
  %66 = zext i32 %65 to i64
  %67 = call noalias ptr @wmem_strbuf_new_sized(ptr noundef %63, i64 noundef %66)
  store ptr %67, ptr %15, align 8
  %68 = load i8, ptr %17, align 1
  %69 = zext i8 %68 to i32
  switch i32 %69, label %212 [
    i32 0, label %70
    i32 1, label %106
    i32 3, label %160
  ]

70:                                               ; preds = %4
  %71 = load ptr, ptr %7, align 8
  %72 = load i32, ptr @hf_awdl_channelseq_channel_list, align 4
  %73 = load ptr, ptr %5, align 8
  %74 = load i32, ptr %16, align 4
  %75 = load i32, ptr %13, align 4
  %76 = call ptr @proto_tree_add_item(ptr noundef %71, i32 noundef %72, ptr noundef %73, i32 noundef %74, i32 noundef %75, i32 noundef 0)
  store ptr %76, ptr %9, align 8
  %77 = load ptr, ptr %9, align 8
  %78 = load i32, ptr @ett_awdl_channelseq_channel_list, align 4
  %79 = call ptr @proto_item_add_subtree(ptr noundef %77, i32 noundef %78)
  store ptr %79, ptr %11, align 8
  call void @llvm.lifetime.start.p0(i64 4, ptr %18) #6
  store i32 0, ptr %18, align 4
  br label %80

80:                                               ; preds = %102, %70
  %81 = load i32, ptr %18, align 4
  %82 = load i32, ptr %13, align 4
  %83 = icmp ult i32 %81, %82
  br i1 %83, label %85, label %84

84:                                               ; preds = %80
  call void @llvm.lifetime.end.p0(i64 4, ptr %18) #6
  br label %105

85:                                               ; preds = %80
  %86 = load ptr, ptr %11, align 8
  %87 = load i32, ptr @hf_awdl_channelseq_channel_number, align 4
  %88 = load ptr, ptr %5, align 8
  %89 = load i32, ptr %16, align 4
  %90 = call ptr @proto_tree_add_item_ret_uint(ptr noundef %86, i32 noundef %87, ptr noundef %88, i32 noundef %89, i32 noundef 1, i32 noundef -2147483648, ptr noundef %14)
  %91 = load i32, ptr %16, align 4
  %92 = add i32 %91, 1
  store i32 %92, ptr %16, align 4
  %93 = load i32, ptr %18, align 4
  %94 = icmp ne i32 %93, 0
  br i1 %94, label %95, label %98

95:                                               ; preds = %85
  %96 = load ptr, ptr %15, align 8
  %97 = load i32, ptr %14, align 4
  call void (ptr, ptr, ...) @wmem_strbuf_append_printf(ptr noundef %96, ptr noundef @.str.573, i32 noundef %97)
  br label %101

98:                                               ; preds = %85
  %99 = load ptr, ptr %15, align 8
  %100 = load i32, ptr %14, align 4
  call void (ptr, ptr, ...) @wmem_strbuf_append_printf(ptr noundef %99, ptr noundef @.str.583, i32 noundef %100)
  br label %101

101:                                              ; preds = %98, %95
  br label %102

102:                                              ; preds = %101
  %103 = load i32, ptr %18, align 4
  %104 = add i32 %103, 1
  store i32 %104, ptr %18, align 4
  br label %80, !llvm.loop !13

105:                                              ; preds = %84
  br label %213

106:                                              ; preds = %4
  %107 = load ptr, ptr %7, align 8
  %108 = load i32, ptr @hf_awdl_channelseq_channel_list, align 4
  %109 = load ptr, ptr %5, align 8
  %110 = load i32, ptr %16, align 4
  %111 = load i32, ptr %13, align 4
  %112 = mul i32 2, %111
  %113 = call ptr @proto_tree_add_item(ptr noundef %107, i32 noundef %108, ptr noundef %109, i32 noundef %110, i32 noundef %112, i32 noundef 0)
  store ptr %113, ptr %9, align 8
  %114 = load ptr, ptr %9, align 8
  %115 = load i32, ptr @ett_awdl_channelseq_channel_list, align 4
  %116 = call ptr @proto_item_add_subtree(ptr noundef %114, i32 noundef %115)
  store ptr %116, ptr %11, align 8
  call void @llvm.lifetime.start.p0(i64 4, ptr %19) #6
  store i32 0, ptr %19, align 4
  br label %117

117:                                              ; preds = %156, %106
  %118 = load i32, ptr %19, align 4
  %119 = load i32, ptr %13, align 4
  %120 = icmp ult i32 %118, %119
  br i1 %120, label %122, label %121

121:                                              ; preds = %117
  call void @llvm.lifetime.end.p0(i64 4, ptr %19) #6
  br label %159

122:                                              ; preds = %117
  %123 = load ptr, ptr %11, align 8
  %124 = load i32, ptr @hf_awdl_channelseq_channel, align 4
  %125 = load ptr, ptr %5, align 8
  %126 = load i32, ptr %16, align 4
  %127 = add i32 %126, 1
  %128 = call ptr @proto_tree_add_item_ret_uint(ptr noundef %123, i32 noundef %124, ptr noundef %125, i32 noundef %127, i32 noundef 1, i32 noundef -2147483648, ptr noundef %14)
  store ptr %128, ptr %10, align 8
  %129 = load ptr, ptr %10, align 8
  %130 = load i32, ptr @ett_awdl_channelseq_channel, align 4
  %131 = call ptr @proto_item_add_subtree(ptr noundef %129, i32 noundef %130)
  store ptr %131, ptr %12, align 8
  %132 = load ptr, ptr %12, align 8
  %133 = load ptr, ptr %5, align 8
  %134 = load i32, ptr %16, align 4
  %135 = load i32, ptr @hf_awdl_channelseq_channel_flags, align 4
  %136 = load i32, ptr @ett_awdl_channelseq_flags, align 4
  %137 = call ptr @proto_tree_add_bitmask(ptr noundef %132, ptr noundef %133, i32 noundef %134, i32 noundef %135, i32 noundef %136, ptr noundef @awdl_tag_channel_sequence.flags_fields, i32 noundef -2147483648)
  %138 = load i32, ptr %16, align 4
  %139 = add i32 %138, 1
  store i32 %139, ptr %16, align 4
  %140 = load ptr, ptr %12, align 8
  %141 = load i32, ptr @hf_awdl_channelseq_channel_number, align 4
  %142 = load ptr, ptr %5, align 8
  %143 = load i32, ptr %16, align 4
  %144 = call ptr @proto_tree_add_item(ptr noundef %140, i32 noundef %141, ptr noundef %142, i32 noundef %143, i32 noundef 1, i32 noundef -2147483648)
  %145 = load i32, ptr %16, align 4
  %146 = add i32 %145, 1
  store i32 %146, ptr %16, align 4
  %147 = load i32, ptr %19, align 4
  %148 = icmp ne i32 %147, 0
  br i1 %148, label %149, label %152

149:                                              ; preds = %122
  %150 = load ptr, ptr %15, align 8
  %151 = load i32, ptr %14, align 4
  call void (ptr, ptr, ...) @wmem_strbuf_append_printf(ptr noundef %150, ptr noundef @.str.573, i32 noundef %151)
  br label %155

152:                                              ; preds = %122
  %153 = load ptr, ptr %15, align 8
  %154 = load i32, ptr %14, align 4
  call void (ptr, ptr, ...) @wmem_strbuf_append_printf(ptr noundef %153, ptr noundef @.str.583, i32 noundef %154)
  br label %155

155:                                              ; preds = %152, %149
  br label %156

156:                                              ; preds = %155
  %157 = load i32, ptr %19, align 4
  %158 = add i32 %157, 1
  store i32 %158, ptr %19, align 4
  br label %117, !llvm.loop !14

159:                                              ; preds = %121
  br label %213

160:                                              ; preds = %4
  %161 = load ptr, ptr %7, align 8
  %162 = load i32, ptr @hf_awdl_channelseq_channel_list, align 4
  %163 = load ptr, ptr %5, align 8
  %164 = load i32, ptr %16, align 4
  %165 = load i32, ptr %13, align 4
  %166 = mul i32 2, %165
  %167 = call ptr @proto_tree_add_item(ptr noundef %161, i32 noundef %162, ptr noundef %163, i32 noundef %164, i32 noundef %166, i32 noundef 0)
  store ptr %167, ptr %9, align 8
  %168 = load ptr, ptr %9, align 8
  %169 = load i32, ptr @ett_awdl_channelseq_channel_list, align 4
  %170 = call ptr @proto_item_add_subtree(ptr noundef %168, i32 noundef %169)
  store ptr %170, ptr %11, align 8
  call void @llvm.lifetime.start.p0(i64 4, ptr %20) #6
  store i32 0, ptr %20, align 4
  br label %171

171:                                              ; preds = %208, %160
  %172 = load i32, ptr %20, align 4
  %173 = load i32, ptr %13, align 4
  %174 = icmp ult i32 %172, %173
  br i1 %174, label %176, label %175

175:                                              ; preds = %171
  call void @llvm.lifetime.end.p0(i64 4, ptr %20) #6
  br label %211

176:                                              ; preds = %171
  %177 = load ptr, ptr %11, align 8
  %178 = load i32, ptr @hf_awdl_channelseq_channel, align 4
  %179 = load ptr, ptr %5, align 8
  %180 = load i32, ptr %16, align 4
  %181 = call ptr @proto_tree_add_item_ret_uint(ptr noundef %177, i32 noundef %178, ptr noundef %179, i32 noundef %180, i32 noundef 1, i32 noundef -2147483648, ptr noundef %14)
  store ptr %181, ptr %10, align 8
  %182 = load ptr, ptr %10, align 8
  %183 = load i32, ptr @ett_awdl_channelseq_channel, align 4
  %184 = call ptr @proto_item_add_subtree(ptr noundef %182, i32 noundef %183)
  store ptr %184, ptr %12, align 8
  %185 = load ptr, ptr %12, align 8
  %186 = load i32, ptr @hf_awdl_channelseq_channel_number, align 4
  %187 = load ptr, ptr %5, align 8
  %188 = load i32, ptr %16, align 4
  %189 = call ptr @proto_tree_add_item(ptr noundef %185, i32 noundef %186, ptr noundef %187, i32 noundef %188, i32 noundef 1, i32 noundef -2147483648)
  %190 = load i32, ptr %16, align 4
  %191 = add i32 %190, 1
  store i32 %191, ptr %16, align 4
  %192 = load ptr, ptr %12, align 8
  %193 = load i32, ptr @hf_awdl_channelseq_channel_operating_class, align 4
  %194 = load ptr, ptr %5, align 8
  %195 = load i32, ptr %16, align 4
  %196 = call ptr @proto_tree_add_item(ptr noundef %192, i32 noundef %193, ptr noundef %194, i32 noundef %195, i32 noundef 1, i32 noundef -2147483648)
  %197 = load i32, ptr %16, align 4
  %198 = add i32 %197, 1
  store i32 %198, ptr %16, align 4
  %199 = load i32, ptr %20, align 4
  %200 = icmp ne i32 %199, 0
  br i1 %200, label %201, label %204

201:                                              ; preds = %176
  %202 = load ptr, ptr %15, align 8
  %203 = load i32, ptr %14, align 4
  call void (ptr, ptr, ...) @wmem_strbuf_append_printf(ptr noundef %202, ptr noundef @.str.573, i32 noundef %203)
  br label %207

204:                                              ; preds = %176
  %205 = load ptr, ptr %15, align 8
  %206 = load i32, ptr %14, align 4
  call void (ptr, ptr, ...) @wmem_strbuf_append_printf(ptr noundef %205, ptr noundef @.str.583, i32 noundef %206)
  br label %207

207:                                              ; preds = %204, %201
  br label %208

208:                                              ; preds = %207
  %209 = load i32, ptr %20, align 4
  %210 = add i32 %209, 1
  store i32 %210, ptr %20, align 4
  br label %171, !llvm.loop !15

211:                                              ; preds = %175
  br label %213

212:                                              ; preds = %4
  store ptr null, ptr %9, align 8
  br label %213

213:                                              ; preds = %212, %211, %159, %105
  %214 = load ptr, ptr %9, align 8
  %215 = icmp ne ptr %214, null
  br i1 %215, label %216, label %220

216:                                              ; preds = %213
  %217 = load ptr, ptr %9, align 8
  %218 = load ptr, ptr %15, align 8
  %219 = call ptr @wmem_strbuf_get_str(ptr noundef %218)
  call void (ptr, ptr, ...) @proto_item_append_text(ptr noundef %217, ptr noundef @.str.551, ptr noundef %219)
  br label %220

220:                                              ; preds = %216, %213
  %221 = load i32, ptr %16, align 4
  call void @llvm.lifetime.end.p0(i64 1, ptr %17) #6
  call void @llvm.lifetime.end.p0(i64 4, ptr %16) #6
  call void @llvm.lifetime.end.p0(i64 8, ptr %15) #6
  call void @llvm.lifetime.end.p0(i64 4, ptr %14) #6
  call void @llvm.lifetime.end.p0(i64 4, ptr %13) #6
  call void @llvm.lifetime.end.p0(i64 8, ptr %12) #6
  call void @llvm.lifetime.end.p0(i64 8, ptr %11) #6
  call void @llvm.lifetime.end.p0(i64 8, ptr %10) #6
  call void @llvm.lifetime.end.p0(i64 8, ptr %9) #6
  ret i32 %221
}