; Function Attrs: null_pointer_is_valid sspstrong uwtable
define internal i32 @awdl_tag_channel_sequence(ptr noundef %0, ptr noundef readonly captures(none) %1, ptr noundef %2, ptr readnone captures(none) %3) #0 {
  %5 = alloca i32, align 4
  %6 = alloca i32, align 4
  call void @llvm.lifetime.start.p0(i64 4, ptr nonnull %5) #5
  call void @llvm.lifetime.start.p0(i64 4, ptr nonnull %6) #5
  %7 = load i32, ptr @hf_awdl_channelseq_channel_count, align 4
  %8 = call ptr @proto_tree_add_item_ret_uint(ptr noundef %2, i32 noundef %7, ptr noundef %0, i32 noundef 0, i32 noundef 1, i32 noundef -2147483648, ptr noundef nonnull %5)
  %9 = load i32, ptr %5, align 4
  %10 = add i32 %9, 1
  store i32 %10, ptr %5, align 4
  %11 = call zeroext i8 @tvb_get_uint8(ptr noundef %0, i32 noundef 1)
  %12 = load i32, ptr @hf_awdl_channelseq_enc, align 4
  %13 = call ptr @proto_tree_add_item(ptr noundef %2, i32 noundef %12, ptr noundef %0, i32 noundef 1, i32 noundef 1, i32 noundef -2147483648)
  %14 = load i32, ptr @hf_awdl_channelseq_duplicate, align 4
  %15 = call ptr @proto_tree_add_item(ptr noundef %2, i32 noundef %14, ptr noundef %0, i32 noundef 2, i32 noundef 1, i32 noundef -2147483648)
  %16 = load i32, ptr @hf_awdl_channelseq_step_count, align 4
  %17 = call ptr @proto_tree_add_item(ptr noundef %2, i32 noundef %16, ptr noundef %0, i32 noundef 3, i32 noundef 1, i32 noundef -2147483648)
  %18 = load i32, ptr @hf_awdl_channelseq_fill_chan, align 4
  %19 = call ptr @proto_tree_add_item(ptr noundef %2, i32 noundef %18, ptr noundef %0, i32 noundef 4, i32 noundef 2, i32 noundef -2147483648)
  %20 = getelementptr inbounds nuw i8, ptr %1, i64 408
  %21 = load ptr, ptr %20, align 8
  %22 = load i32, ptr %5, align 4
  %23 = mul i32 %22, 5
  %24 = zext i32 %23 to i64
  %25 = call noalias ptr @wmem_strbuf_new_sized(ptr noundef %21, i64 noundef %24)
  switch i8 %11, label %.thread [
    i8 0, label %26
    i8 1, label %40
    i8 3, label %63
  ]

26:                                               ; preds = %4
  %27 = load i32, ptr @hf_awdl_channelseq_channel_list, align 4
  %28 = load i32, ptr %5, align 4
  %29 = call ptr @proto_tree_add_item(ptr noundef %2, i32 noundef %27, ptr noundef %0, i32 noundef 6, i32 noundef %28, i32 noundef 0)
  %30 = load i32, ptr @ett_awdl_channelseq_channel_list, align 4
  %31 = call ptr @proto_item_add_subtree(ptr noundef %29, i32 noundef %30)
  %32 = load i32, ptr %5, align 4
  %.not107 = icmp eq i32 %32, 0
  br i1 %.not107, label %.loopexit, label %.lr.ph103

.lr.ph103:                                        ; preds = %26, %.lr.ph103
  %.083102 = phi i32 [ %37, %.lr.ph103 ], [ 0, %26 ]
  %.085101 = phi i32 [ %35, %.lr.ph103 ], [ 6, %26 ]
  %33 = load i32, ptr @hf_awdl_channelseq_channel_number, align 4
  %34 = call ptr @proto_tree_add_item_ret_uint(ptr noundef %31, i32 noundef %33, ptr noundef %0, i32 noundef %.085101, i32 noundef 1, i32 noundef -2147483648, ptr noundef nonnull %6)
  %35 = add i32 %.085101, 1
  %.not87 = icmp eq i32 %.083102, 0
  %36 = load i32, ptr %6, align 4
  %.str.583..str.573 = select i1 %.not87, ptr @.str.583, ptr @.str.573
  call void (ptr, ptr, ...) @wmem_strbuf_append_printf(ptr noundef %25, ptr noundef nonnull %.str.583..str.573, i32 noundef %36)
  %37 = add nuw i32 %.083102, 1
  %38 = load i32, ptr %5, align 4
  %39 = icmp ult i32 %37, %38
  br i1 %39, label %.lr.ph103, label %.loopexit, !llvm.loop !12

40:                                               ; preds = %4
  %41 = load i32, ptr @hf_awdl_channelseq_channel_list, align 4
  %42 = load i32, ptr %5, align 4
  %43 = shl i32 %42, 1
  %44 = call ptr @proto_tree_add_item(ptr noundef %2, i32 noundef %41, ptr noundef %0, i32 noundef 6, i32 noundef %43, i32 noundef 0)
  %45 = load i32, ptr @ett_awdl_channelseq_channel_list, align 4
  %46 = call ptr @proto_item_add_subtree(ptr noundef %44, i32 noundef %45)
  %47 = load i32, ptr %5, align 4
  %.not106 = icmp eq i32 %47, 0
  br i1 %.not106, label %.loopexit, label %.lr.ph99

.lr.ph99:                                         ; preds = %40, %.lr.ph99
  %.08298 = phi i32 [ %60, %.lr.ph99 ], [ 0, %40 ]
  %.297 = phi i32 [ %58, %.lr.ph99 ], [ 6, %40 ]
  %48 = load i32, ptr @hf_awdl_channelseq_channel, align 4
  %49 = or disjoint i32 %.297, 1
  %50 = call ptr @proto_tree_add_item_ret_uint(ptr noundef %46, i32 noundef %48, ptr noundef %0, i32 noundef %49, i32 noundef 1, i32 noundef -2147483648, ptr noundef nonnull %6)
  %51 = load i32, ptr @ett_awdl_channelseq_channel, align 4
  %52 = call ptr @proto_item_add_subtree(ptr noundef %50, i32 noundef %51)
  %53 = load i32, ptr @hf_awdl_channelseq_channel_flags, align 4
  %54 = load i32, ptr @ett_awdl_channelseq_flags, align 4
  %55 = call ptr @proto_tree_add_bitmask(ptr noundef %52, ptr noundef %0, i32 noundef %.297, i32 noundef %53, i32 noundef %54, ptr noundef nonnull @awdl_tag_channel_sequence.flags_fields, i32 noundef -2147483648)
  %56 = load i32, ptr @hf_awdl_channelseq_channel_number, align 4
  %57 = call ptr @proto_tree_add_item(ptr noundef %52, i32 noundef %56, ptr noundef %0, i32 noundef %49, i32 noundef 1, i32 noundef -2147483648)
  %58 = add i32 %.297, 2
  %.not86 = icmp eq i32 %.08298, 0
  %59 = load i32, ptr %6, align 4
  %.str.583..str.573118 = select i1 %.not86, ptr @.str.583, ptr @.str.573
  call void (ptr, ptr, ...) @wmem_strbuf_append_printf(ptr noundef %25, ptr noundef nonnull %.str.583..str.573118, i32 noundef %59)
  %60 = add nuw i32 %.08298, 1
  %61 = load i32, ptr %5, align 4
  %62 = icmp ult i32 %60, %61
  br i1 %62, label %.lr.ph99, label %.loopexit, !llvm.loop !13

63:                                               ; preds = %4
  %64 = load i32, ptr @hf_awdl_channelseq_channel_list, align 4
  %65 = load i32, ptr %5, align 4
  %66 = shl i32 %65, 1
  %67 = call ptr @proto_tree_add_item(ptr noundef %2, i32 noundef %64, ptr noundef %0, i32 noundef 6, i32 noundef %66, i32 noundef 0)
  %68 = load i32, ptr @ett_awdl_channelseq_channel_list, align 4
  %69 = call ptr @proto_item_add_subtree(ptr noundef %67, i32 noundef %68)
  %70 = load i32, ptr %5, align 4
  %.not105 = icmp eq i32 %70, 0
  br i1 %.not105, label %.loopexit, label %.lr.ph

.lr.ph:                                           ; preds = %63, %.lr.ph
  %.096 = phi i32 [ %82, %.lr.ph ], [ 0, %63 ]
  %.395 = phi i32 [ %80, %.lr.ph ], [ 6, %63 ]
  %71 = load i32, ptr @hf_awdl_channelseq_channel, align 4
  %72 = call ptr @proto_tree_add_item_ret_uint(ptr noundef %69, i32 noundef %71, ptr noundef %0, i32 noundef %.395, i32 noundef 1, i32 noundef -2147483648, ptr noundef nonnull %6)
  %73 = load i32, ptr @ett_awdl_channelseq_channel, align 4
  %74 = call ptr @proto_item_add_subtree(ptr noundef %72, i32 noundef %73)
  %75 = load i32, ptr @hf_awdl_channelseq_channel_number, align 4
  %76 = call ptr @proto_tree_add_item(ptr noundef %74, i32 noundef %75, ptr noundef %0, i32 noundef %.395, i32 noundef 1, i32 noundef -2147483648)
  %77 = or disjoint i32 %.395, 1
  %78 = load i32, ptr @hf_awdl_channelseq_channel_operating_class, align 4
  %79 = call ptr @proto_tree_add_item(ptr noundef %74, i32 noundef %78, ptr noundef %0, i32 noundef %77, i32 noundef 1, i32 noundef -2147483648)
  %80 = add i32 %.395, 2
  %.not = icmp eq i32 %.096, 0
  %81 = load i32, ptr %6, align 4
  %.str.583..str.573119 = select i1 %.not, ptr @.str.583, ptr @.str.573
  call void (ptr, ptr, ...) @wmem_strbuf_append_printf(ptr noundef %25, ptr noundef nonnull %.str.583..str.573119, i32 noundef %81)
  %82 = add nuw i32 %.096, 1
  %83 = load i32, ptr %5, align 4
  %84 = icmp ult i32 %82, %83
  br i1 %84, label %.lr.ph, label %.loopexit, !llvm.loop !14

.loopexit:                                        ; preds = %.lr.ph, %.lr.ph99, %.lr.ph103, %63, %40, %26
  %.1 = phi i32 [ 6, %26 ], [ 6, %40 ], [ 6, %63 ], [ %35, %.lr.ph103 ], [ %58, %.lr.ph99 ], [ %80, %.lr.ph ]
  %.084 = phi ptr [ %29, %26 ], [ %44, %40 ], [ %67, %63 ], [ %29, %.lr.ph103 ], [ %44, %.lr.ph99 ], [ %67, %.lr.ph ]
  %.not88 = icmp eq ptr %.084, null
  br i1 %.not88, label %.thread, label %85

85:                                               ; preds = %.loopexit
  %86 = call ptr @wmem_strbuf_get_str(ptr noundef %25)
  call void (ptr, ptr, ...) @proto_item_append_text(ptr noundef nonnull %.084, ptr noundef nonnull @.str.551, ptr noundef %86)
  br label %.thread

.thread:                                          ; preds = %4, %85, %.loopexit
  %.192 = phi i32 [ %.1, %85 ], [ %.1, %.loopexit ], [ 6, %4 ]
  call void @llvm.lifetime.end.p0(i64 4, ptr nonnull %6) #5
  call void @llvm.lifetime.end.p0(i64 4, ptr nonnull %5) #5
  ret i32 %.192
}